target datalayout = "e-m:e-p270:32:32-p271:32:32-p272:64:64-i64:64-i128:128-f80:128-n8:16:32:64-S128"
target triple = "x86_64-pc-linux-gnu"

%struct.mbedtls_aria_context = type { i8, [17 x [4 x i32]] }

; Function Attrs: inlinehint nounwind uwtable
define internal void @aria_a(ptr noundef %0, ptr noundef %1, ptr noundef %2, ptr noundef %3) #6 {
  %5 = alloca ptr, align 8
  %6 = alloca ptr, align 8
  %7 = alloca ptr, align 8
  %8 = alloca ptr, align 8
  %9 = alloca i32, align 4
  %10 = alloca i32, align 4
  %11 = alloca i32, align 4
  store ptr %0, ptr %5, align 8, !tbaa !14
  store ptr %1, ptr %6, align 8, !tbaa !14
  store ptr %2, ptr %7, align 8, !tbaa !14
  store ptr %3, ptr %8, align 8, !tbaa !14
  call void @llvm.lifetime.start.p0(i64 4, ptr %9) #9
  call void @llvm.lifetime.start.p0(i64 4, ptr %10) #9
  call void @llvm.lifetime.start.p0(i64 4, ptr %11) #9
  %12 = load ptr, ptr %6, align 8, !tbaa !14
  %13 = load i32, ptr %12, align 4, !tbaa !10
  store i32 %13, ptr %9, align 4, !tbaa !10
  %14 = load ptr, ptr %5, align 8, !tbaa !14
  %15 = load i32, ptr %14, align 4, !tbaa !10
  %16 = load ptr, ptr %6, align 8, !tbaa !14
  store i32 %15, ptr %16, align 4, !tbaa !10
  %17 = load i32, ptr %9, align 4, !tbaa !10
  %18 = lshr i32 %17, 16
  %19 = load i32, ptr %9, align 4, !tbaa !10
  %20 = shl i32 %19, 16
  %21 = xor i32 %18, %20
  %22 = load ptr, ptr %5, align 8, !tbaa !14
  store i32 %21, ptr %22, align 4, !tbaa !10
  %23 = load ptr, ptr %8, align 8, !tbaa !14
  %24 = load i32, ptr %23, align 4, !tbaa !10
  %25 = lshr i32 %24, 16
  %26 = load ptr, ptr %8, align 8, !tbaa !14
  %27 = load i32, ptr %26, align 4, !tbaa !10
  %28 = shl i32 %27, 16
  %29 = xor i32 %25, %28
  store i32 %29, ptr %10, align 4, !tbaa !10
  %30 = load ptr, ptr %7, align 8, !tbaa !14
  %31 = load i32, ptr %30, align 4, !tbaa !10
  %32 = call i32 @llvm.bswap.i32(i32 %31)
  %33 = lshr i32 %32, 16
  %34 = load ptr, ptr %7, align 8, !tbaa !14
  %35 = load i32, ptr %34, align 4, !tbaa !10
  %36 = call i32 @llvm.bswap.i32(i32 %35)
  %37 = shl i32 %36, 16
  %38 = xor i32 %33, %37
  %39 = load ptr, ptr %8, align 8, !tbaa !14
  store i32 %38, ptr %39, align 4, !tbaa !10
  %40 = load i32, ptr %10, align 4, !tbaa !10
  %41 = call i32 @llvm.bswap.i32(i32 %40)
  %42 = lshr i32 %41, 16
  %43 = load i32, ptr %10, align 4, !tbaa !10
  %44 = call i32 @llvm.bswap.i32(i32 %43)
  %45 = shl i32 %44, 16
  %46 = xor i32 %42, %45
  %47 = load ptr, ptr %7, align 8, !tbaa !14
  store i32 %46, ptr %47, align 4, !tbaa !10
  %48 = load ptr, ptr %8, align 8, !tbaa !14
  %49 = load i32, ptr %48, align 4, !tbaa !10
  %50 = load i32, ptr %9, align 4, !tbaa !10
  %51 = xor i32 %50, %49
  store i32 %51, ptr %9, align 4, !tbaa !10
  %52 = load ptr, ptr %6, align 8, !tbaa !14
  %53 = load i32, ptr %52, align 4, !tbaa !10
  %54 = lshr i32 %53, 16
  %55 = load ptr, ptr %6, align 8, !tbaa !14
  %56 = load i32, ptr %55, align 4, !tbaa !10
  %57 = shl i32 %56, 16
  %58 = xor i32 %54, %57
  store i32 %58, ptr %11, align 4, !tbaa !10
  %59 = load i32, ptr %9, align 4, !tbaa !10
  %60 = call i32 @llvm.bswap.i32(i32 %59)
  %61 = lshr i32 %60, 16
  %62 = load i32, ptr %9, align 4, !tbaa !10
  %63 = call i32 @llvm.bswap.i32(i32 %62)
  %64 = shl i32 %63, 16
  %65 = xor i32 %61, %64
  %66 = load i32, ptr %11, align 4, !tbaa !10
  %67 = xor i32 %65, %66
  %68 = load ptr, ptr %7, align 8, !tbaa !14
  %69 = load i32, ptr %68, align 4, !tbaa !10
  %70 = xor i32 %67, %69
  store i32 %70, ptr %9, align 4, !tbaa !10
  %71 = load ptr, ptr %8, align 8, !tbaa !14
  %72 = load i32, ptr %71, align 4, !tbaa !10
  %73 = lshr i32 %72, 16
  %74 = load ptr, ptr %8, align 8, !tbaa !14
  %75 = load i32, ptr %74, align 4, !tbaa !10
  %76 = shl i32 %75, 16
  %77 = xor i32 %73, %76
  %78 = load i32, ptr %10, align 4, !tbaa !10
  %79 = xor i32 %78, %77
  store i32 %79, ptr %10, align 4, !tbaa !10
  %80 = load ptr, ptr %5, align 8, !tbaa !14
  %81 = load i32, ptr %80, align 4, !tbaa !10
  %82 = call i32 @llvm.bswap.i32(i32 %81)
  %83 = lshr i32 %82, 16
  %84 = load ptr, ptr %5, align 8, !tbaa !14
  %85 = load i32, ptr %84, align 4, !tbaa !10
  %86 = call i32 @llvm.bswap.i32(i32 %85)
  %87 = shl i32 %86, 16
  %88 = xor i32 %83, %87
  %89 = load i32, ptr %11, align 4, !tbaa !10
  %90 = xor i32 %89, %88
  store i32 %90, ptr %11, align 4, !tbaa !10
  %91 = load i32, ptr %9, align 4, !tbaa !10
  %92 = load i32, ptr %10, align 4, !tbaa !10
  %93 = xor i32 %91, %92
  %94 = load ptr, ptr %6, align 8, !tbaa !14
  %95 = load i32, ptr %94, align 4, !tbaa !10
  %96 = xor i32 %95, %93
  store i32 %96, ptr %94, align 4, !tbaa !10
  %97 = load i32, ptr %10, align 4, !tbaa !10
  %98 = lshr i32 %97, 16
  %99 = load i32, ptr %10, align 4, !tbaa !10
  %100 = shl i32 %99, 16
  %101 = xor i32 %98, %100
  %102 = load i32, ptr %9, align 4, !tbaa !10
  %103 = xor i32 %101, %102
  store i32 %103, ptr %10, align 4, !tbaa !10
  %104 = load i32, ptr %10, align 4, !tbaa !10
  %105 = call i32 @llvm.bswap.i32(i32 %104)
  %106 = lshr i32 %105, 16
  %107 = load i32, ptr %10, align 4, !tbaa !10
  %108 = call i32 @llvm.bswap.i32(i32 %107)
  %109 = shl i32 %108, 16
  %110 = xor i32 %106, %109
  %111 = load ptr, ptr %5, align 8, !tbaa !14
  %112 = load i32, ptr %111, align 4, !tbaa !10
  %113 = xor i32 %112, %110
  store i32 %113, ptr %111, align 4, !tbaa !10
  %114 = load i32, ptr %9, align 4, !tbaa !10
  %115 = lshr i32 %114, 16
  %116 = load i32, ptr %9, align 4, !tbaa !10
  %117 = shl i32 %116, 16
  %118 = xor i32 %115, %117
  store i32 %118, ptr %9, align 4, !tbaa !10
  %119 = load i32, ptr %9, align 4, !tbaa !10
  %120 = call i32 @llvm.bswap.i32(i32 %119)
  %121 = lshr i32 %120, 16
  %122 = load i32, ptr %9, align 4, !tbaa !10
  %123 = call i32 @llvm.bswap.i32(i32 %122)
  %124 = shl i32 %123, 16
  %125 = xor i32 %121, %124
  %126 = load i32, ptr %11, align 4, !tbaa !10
  %127 = xor i32 %125, %126
  %128 = load ptr, ptr %8, align 8, !tbaa !14
  %129 = load i32, ptr %128, align 4, !tbaa !10
  %130 = xor i32 %129, %127
  store i32 %130, ptr %128, align 4, !tbaa !10
  %131 = load i32, ptr %11, align 4, !tbaa !10
  %132 = lshr i32 %131, 16
  %133 = load i32, ptr %11, align 4, !tbaa !10
  %134 = shl i32 %133, 16
  %135 = xor i32 %132, %134
  store i32 %135, ptr %11, align 4, !tbaa !10
  %136 = load i32, ptr %11, align 4, !tbaa !10
  %137 = call i32 @llvm.bswap.i32(i32 %136)
  %138 = lshr i32 %137, 16
  %139 = load i32, ptr %11, align 4, !tbaa !10
  %140 = call i32 @llvm.bswap.i32(i32 %139)
  %141 = shl i32 %140, 16
  %142 = xor i32 %138, %141
  %143 = load i32, ptr %9, align 4, !tbaa !10
  %144 = xor i32 %142, %143
  %145 = load ptr, ptr %7, align 8, !tbaa !14
  %146 = load i32, ptr %145, align 4, !tbaa !10
  %147 = xor i32 %146, %144
  store i32 %147, ptr %145, align 4, !tbaa !10
  call void @llvm.lifetime.end.p0(i64 4, ptr %11) #9
  call void @llvm.lifetime.end.p0(i64 4, ptr %10) #9
  call void @llvm.lifetime.end.p0(i64 4, ptr %9) #9
  ret void
}

; Function Attrs: nounwind uwtable
define hidden i32 @mbedtls_aria_setkey_dec(ptr noundef %0, ptr noundef %1, i32 noundef %2) #0 {
  %4 = alloca i32, align 4
  %5 = alloca ptr, align 8
  %6 = alloca ptr, align 8
  %7 = alloca i32, align 4
  %8 = alloca i32, align 4
  %9 = alloca i32, align 4
  %10 = alloca i32, align 4
  %11 = alloca i32, align 4
  %12 = alloca i32, align 4
  %13 = alloca i32, align 4
  store ptr %0, ptr %5, align 8, !tbaa !3
  store ptr %1, ptr %6, align 8, !tbaa !8
  store i32 %2, ptr %7, align 4, !tbaa !10
  call void @llvm.lifetime.start.p0(i64 4, ptr %8) #9
  call void @llvm.lifetime.start.p0(i64 4, ptr %9) #9
  call void @llvm.lifetime.start.p0(i64 4, ptr %10) #9
  call void @llvm.lifetime.start.p0(i64 4, ptr %11) #9
  %14 = load ptr, ptr %5, align 8, !tbaa !3
  %15 = load ptr, ptr %6, align 8, !tbaa !8
  %16 = load i32, ptr %7, align 4, !tbaa !10
  %17 = call i32 @mbedtls_aria_setkey_enc(ptr noundef %14, ptr noundef %15, i32 noundef %16)
  store i32 %17, ptr %11, align 4, !tbaa !10
  %18 = load i32, ptr %11, align 4, !tbaa !10
  %19 = icmp ne i32 %18, 0
  br i1 %19, label %20, label %22

20:                                               ; preds = %3
  %21 = load i32, ptr %11, align 4, !tbaa !10
  store i32 %21, ptr %4, align 4
  store i32 1, ptr %12, align 4
  br label %117

22:                                               ; preds = %3
  store i32 0, ptr %8, align 4, !tbaa !10
  %23 = load ptr, ptr %5, align 8, !tbaa !3
  %24 = getelementptr inbounds nuw %struct.mbedtls_aria_context, ptr %23, i32 0, i32 0
  %25 = load i8, ptr %24, align 4, !tbaa !12
  %26 = zext i8 %25 to i32
  store i32 %26, ptr %9, align 4, !tbaa !10
  br label %27

27:                                               ; preds = %75, %22
  %28 = load i32, ptr %8, align 4, !tbaa !10
  %29 = load i32, ptr %9, align 4, !tbaa !10
  %30 = icmp slt i32 %28, %29
  br i1 %30, label %31, label %80

31:                                               ; preds = %27
  store i32 0, ptr %10, align 4, !tbaa !10
  br label %32

32:                                               ; preds = %71, %31
  %33 = load i32, ptr %10, align 4, !tbaa !10
  %34 = icmp slt i32 %33, 4
  br i1 %34, label %35, label %74

35:                                               ; preds = %32
  call void @llvm.lifetime.start.p0(i64 4, ptr %13) #9
  %36 = load ptr, ptr %5, align 8, !tbaa !3
  %37 = getelementptr inbounds nuw %struct.mbedtls_aria_context, ptr %36, i32 0, i32 1
  %38 = load i32, ptr %8, align 4, !tbaa !10
  %39 = sext i32 %38 to i64
  %40 = getelementptr inbounds [17 x [4 x i32]], ptr %37, i64 0, i64 %39
  %41 = load i32, ptr %10, align 4, !tbaa !10
  %42 = sext i32 %41 to i64
  %43 = getelementptr inbounds [4 x i32], ptr %40, i64 0, i64 %42
  %44 = load i32, ptr %43, align 4, !tbaa !10
  store i32 %44, ptr %13, align 4, !tbaa !10
  %45 = load ptr, ptr %5, align 8, !tbaa !3
  %46 = getelementptr inbounds nuw %struct.mbedtls_aria_context, ptr %45, i32 0, i32 1
  %47 = load i32, ptr %9, align 4, !tbaa !10
  %48 = sext i32 %47 to i64
  %49 = getelementptr inbounds [17 x [4 x i32]], ptr %46, i64 0, i64 %48
  %50 = load i32, ptr %10, align 4, !tbaa !10
  %51 = sext i32 %50 to i64
  %52 = getelementptr inbounds [4 x i32], ptr %49, i64 0, i64 %51
  %53 = load i32, ptr %52, align 4, !tbaa !10
  %54 = load ptr, ptr %5, align 8, !tbaa !3
  %55 = getelementptr inbounds nuw %struct.mbedtls_aria_context, ptr %54, i32 0, i32 1
  %56 = load i32, ptr %8, align 4, !tbaa !10
  %57 = sext i32 %56 to i64
  %58 = getelementptr inbounds [17 x [4 x i32]], ptr %55, i64 0, i64 %57
  %59 = load i32, ptr %10, align 4, !tbaa !10
  %60 = sext i32 %59 to i64
  %61 = getelementptr inbounds [4 x i32], ptr %58, i64 0, i64 %60
  store i32 %53, ptr %61, align 4, !tbaa !10
  %62 = load i32, ptr %13, align 4, !tbaa !10
  %63 = load ptr, ptr %5, align 8, !tbaa !3
  %64 = getelementptr inbounds nuw %struct.mbedtls_aria_context, ptr %63, i32 0, i32 1
  %65 = load i32, ptr %9, align 4, !tbaa !10
  %66 = sext i32 %65 to i64
  %67 = getelementptr inbounds [17 x [4 x i32]], ptr %64, i64 0, i64 %66
  %68 = load i32, ptr %10, align 4, !tbaa !10
  %69 = sext i32 %68 to i64
  %70 = getelementptr inbounds [4 x i32], ptr %67, i64 0, i64 %69
  store i32 %62, ptr %70, align 4, !tbaa !10
  call void @llvm.lifetime.end.p0(i64 4, ptr %13) #9
  br label %71

71:                                               ; preds = %35
  %72 = load i32, ptr %10, align 4, !tbaa !10
  %73 = add nsw i32 %72, 1
  store i32 %73, ptr %10, align 4, !tbaa !10
  br label %32, !llvm.loop !21

74:                                               ; preds = %32
  br label %75

75:                                               ; preds = %74
  %76 = load i32, ptr %8, align 4, !tbaa !10
  %77 = add nsw i32 %76, 1
  store i32 %77, ptr %8, align 4, !tbaa !10
  %78 = load i32, ptr %9, align 4, !tbaa !10
  %79 = add nsw i32 %78, -1
  store i32 %79, ptr %9, align 4, !tbaa !10
  br label %27, !llvm.loop !22

80:                                               ; preds = %27
  store i32 1, ptr %8, align 4, !tbaa !10
  br label %81

81:                                               ; preds = %113, %80
  %82 = load i32, ptr %8, align 4, !tbaa !10
  %83 = load ptr, ptr %5, align 8, !tbaa !3
  %84 = getelementptr inbounds nuw %struct.mbedtls_aria_context, ptr %83, i32 0, i32 0
  %85 = load i8, ptr %84, align 4, !tbaa !12
  %86 = zext i8 %85 to i32
  %87 = icmp slt i32 %82, %86
  br i1 %87, label %88, label %116

88:                                               ; preds = %81
  %89 = load ptr, ptr %5, align 8, !tbaa !3
  %90 = getelementptr inbounds nuw %struct.mbedtls_aria_context, ptr %89, i32 0, i32 1
  %91 = load i32, ptr %8, align 4, !tbaa !10
  %92 = sext i32 %91 to i64
  %93 = getelementptr inbounds [17 x [4 x i32]], ptr %90, i64 0, i64 %92
  %94 = getelementptr inbounds [4 x i32], ptr %93, i64 0, i64 0
  %95 = load ptr, ptr %5, align 8, !tbaa !3
  %96 = getelementptr inbounds nuw %struct.mbedtls_aria_context, ptr %95, i32 0, i32 1
  %97 = load i32, ptr %8, align 4, !tbaa !10
  %98 = sext i32 %97 to i64
  %99 = getelementptr inbounds [17 x [4 x i32]], ptr %96, i64 0, i64 %98
  %100 = getelementptr inbounds [4 x i32], ptr %99, i64 0, i64 1
  %101 = load ptr, ptr %5, align 8, !tbaa !3
  %102 = getelementptr inbounds nuw %struct.mbedtls_aria_context, ptr %101, i32 0, i32 1
  %103 = load i32, ptr %8, align 4, !tbaa !10
  %104 = sext i32 %103 to i64
  %105 = getelementptr inbounds [17 x [4 x i32]], ptr %102, i64 0, i64 %104
  %106 = getelementptr inbounds [4 x i32], ptr %105, i64 0, i64 2
  %107 = load ptr, ptr %5, align 8, !tbaa !3
  %108 = getelementptr inbounds nuw %struct.mbedtls_aria_context, ptr %107, i32 0, i32 1
  %109 = load i32, ptr %8, align 4, !tbaa !10
  %110 = sext i32 %109 to i64
  %111 = getelementptr inbounds [17 x [4 x i32]], ptr %108, i64 0, i64 %110
  %112 = getelementptr inbounds [4 x i32], ptr %111, i64 0, i64 3
  call void @aria_a(ptr noundef %94, ptr noundef %100, ptr noundef %106, ptr noundef %112)
  br label %113

113:                                              ; preds = %88
  %114 = load i32, ptr %8, align 4, !tbaa !10
  %115 = add nsw i32 %114, 1
  store i32 %115, ptr %8, align 4, !tbaa !10
  br label %81, !llvm.loop !23

116:                                              ; preds = %81
  store i32 0, ptr %4, align 4
  store i32 1, ptr %12, align 4
  br label %117

117:                                              ; preds = %116, %20
  call void @llvm.lifetime.end.p0(i64 4, ptr %11) #9
  call void @llvm.lifetime.end.p0(i64 4, ptr %10) #9
  call void @llvm.lifetime.end.p0(i64 4, ptr %9) #9
  call void @llvm.lifetime.end.p0(i64 4, ptr %8) #9
  %118 = load i32, ptr %4, align 4
  ret i32 %118
}